(dp0
S'training_loss'
p1
(lp2
F454.0292663574219
aF35996.828125
aF257825.203125
aF1155.084228515625
aF543.7101440429688
aF637.6788330078125
aF492.7669982910156
aF4346421.5
aF1683729.125
aF269327.5
aF1677742592.0
aF10499911.0
aF264042960.0
aF26646602.0
aF644610.875
aF191697824.0
aF32642626.0
aF912519.8125
aF3310265.5
aF177384.53125
aF800758.25
aF596358.0
aF2029564.375
aF148656.046875
aF583576.875
aF177976.59375
aF201506.65625
aF552130.5625
aF190548.125
aF7943.3330078125
aF3995.186279296875
aF9986.0107421875
aF8609.9599609375
aF4990.21533203125
aF4556.42333984375
aF6823.0439453125
aF13674.0634765625
aF4288.91015625
aF3172.52294921875
aF3592.458984375
aF1341.7373046875
aF1214.39697265625
aF1274.37060546875
aF1475.0643310546875
aF1301.2020263671875
aF1121.5869140625
aF1110.1146240234375
aF1122.352783203125
aF1089.4091796875
aF1163.494384765625
aF1373.576416015625
aF1015.3202514648438
aF994.2427368164062
aF993.80712890625
aF999.3477783203125
aF988.24365234375
aF1073.1944580078125
aF981.3080444335938
aF984.790771484375
aF974.3800048828125
aF969.673095703125
aF968.38525390625
aF965.5265502929688
aF964.788818359375
aF964.9449462890625
aF965.8773803710938
aF964.4910888671875
aF967.6542358398438
aF964.166259765625
aF964.1190185546875
aF964.781005859375
aF964.2077026367188
aF965.1118774414062
aF964.4488525390625
aF964.173583984375
aF964.1185913085938
aF964.0156860351562
aF964.0465698242188
aF964.1061401367188
aF964.0653076171875
aF964.0444946289062
aF964.0475463867188
aF964.0521850585938
aF964.0238647460938
aF964.0162963867188
aF964.0574951171875
aF964.0040893554688
aF964.0756225585938
aF963.9376220703125
aF963.9715576171875
aF963.9752197265625
aF964.0781860351562
aF964.0249633789062
aF963.98876953125
aF963.9762573242188
aF963.9938354492188
aF964.0221557617188
aF964.0079956054688
aF964.1168823242188
aF964.0133666992188
aF964.078857421875
aF964.0324096679688
aF964.0287475585938
aF963.985595703125
aF964.0444946289062
aF964.0325317382812
aF963.99169921875
aF963.983642578125
aF964.0266723632812
aF964.0263061523438
aF963.9840087890625
aF964.0548706054688
aF963.9841918945312
aF963.92626953125
aF963.9232788085938
aF963.971923828125
aF964.0801391601562
aF964.006591796875
aF963.9714965820312
aF963.854736328125
aF963.8831176757812
aF963.9194946289062
aF963.9058227539062
aF963.8621826171875
aF963.9647216796875
aF963.9454345703125
aF964.0538940429688
aF963.9677734375
aF963.9755859375
aF963.9638061523438
aF964.0079956054688
aF963.8906860351562
aF963.932373046875
aF963.94189453125
aF963.9962768554688
aF963.905517578125
aF963.899658203125
aF963.9526977539062
aF963.9728393554688
aF964.0936889648438
aF964.0068969726562
aF963.9827270507812
aF963.980712890625
aF963.9553833007812
aF964.0301513671875
aF964.0586547851562
aF963.9700317382812
aF964.0286865234375
aF963.9900512695312
aF963.9440307617188
aF963.991943359375
aF964.0267944335938
aF963.9938354492188
aF963.9140014648438
aF963.8870849609375
aF963.9729614257812
aF963.9666137695312
aF963.9202880859375
aF963.9397583007812
aF963.9078369140625
aF963.947265625
aF964.028564453125
aF963.9152221679688
aF963.9200439453125
aF963.8212280273438
aF963.9679565429688
aF963.9628295898438
aF963.9935913085938
aF964.0069580078125
aF963.9803466796875
aF963.9791259765625
aF963.9949340820312
aF964.0109252929688
aF963.9781494140625
aF964.0149536132812
aF963.9039916992188
aF964.0359497070312
aF963.9181518554688
aF963.9055786132812
aF963.83935546875
aF963.901611328125
aF963.9564819335938
aF964.0055541992188
aF963.83740234375
aF963.8428955078125
aF963.9044799804688
aF963.9009399414062
aF963.8899536132812
aF963.8743896484375
aF963.903564453125
aF963.8582153320312
aF963.9353637695312
aF963.8792724609375
aF963.8826904296875
aF963.820068359375
aF963.966064453125
aF963.9210815429688
aF963.9620971679688
aF963.9053955078125
aF964.028564453125
aF963.876220703125
asS'validation_loss'
p3
(lp4
F452.2350769042969
aF36736.6015625
aF259746.953125
aF1165.49267578125
aF542.940673828125
aF638.0597534179688
aF491.4787902832031
aF4346242.5
aF1682580.75
aF272020.0
aF1679758592.0
aF10688608.0
aF265482496.0
aF26674776.0
aF648003.5625
aF188023648.0
aF32930622.0
aF2567043.0
aF3587342.0
aF538893.25
aF814872.6875
aF1200842.25
aF2035889.375
aF159758.25
aF588019.0625
aF181158.3125
aF201903.75
aF554110.1875
aF192210.375
aF8147.90185546875
aF4171.55078125
aF10133.3193359375
aF8858.876953125
aF5092.11962890625
aF5501.41357421875
aF7013.81982421875
aF13851.240234375
aF4508.00341796875
aF3236.390869140625
aF3721.923583984375
aF1450.7161865234375
aF1314.5076904296875
aF1403.396728515625
aF1580.578857421875
aF1371.6142578125
aF1244.062744140625
aF1230.1558837890625
aF1253.2569580078125
aF1241.483642578125
aF1243.12939453125
aF1434.3389892578125
aF1143.0687255859375
aF1113.3109130859375
aF1103.42919921875
aF1129.758056640625
aF1092.7567138671875
aF1243.400634765625
aF1101.8494873046875
aF1087.9154052734375
aF1075.613525390625
aF1088.63525390625
aF1085.599853515625
aF1074.302978515625
aF1075.404296875
aF1074.591552734375
aF1070.4761962890625
aF1075.23193359375
aF1074.913818359375
aF1070.57958984375
aF1071.0689697265625
aF1074.2232666015625
aF1072.505615234375
aF1068.1171875
aF1067.9591064453125
aF1068.1202392578125
aF1068.2095947265625
aF1068.3531494140625
aF1068.36669921875
aF1068.3392333984375
aF1068.418701171875
aF1068.446533203125
aF1068.4761962890625
aF1068.5108642578125
aF1068.5447998046875
aF1068.57861328125
aF1068.541015625
aF1068.5965576171875
aF1068.5560302734375
aF1068.7166748046875
aF1068.6851806640625
aF1068.7193603515625
aF1068.61279296875
aF1068.68359375
aF1068.7222900390625
aF1068.7432861328125
aF1068.7335205078125
aF1068.7764892578125
aF1068.7760009765625
aF1068.6641845703125
aF1068.7755126953125
aF1068.705322265625
aF1068.7586669921875
aF1068.7275390625
aF1068.7855224609375
aF1068.7393798828125
aF1068.79638671875
aF1068.84033203125
aF1068.8299560546875
aF1068.821533203125
aF1068.8223876953125
aF1068.83349609375
aF1068.785400390625
aF1068.851806640625
aF1068.9534912109375
aF1068.977294921875
aF1068.8577880859375
aF1068.7764892578125
aF1068.81591796875
aF1068.7957763671875
aF1068.98388671875
aF1068.9447021484375
aF1068.86572265625
aF1068.8846435546875
aF1068.9356689453125
aF1068.78125
aF1068.788818359375
aF1068.6826171875
aF1068.784423828125
aF1068.7840576171875
aF1068.8018798828125
aF1068.735107421875
aF1068.8861083984375
aF1068.7918701171875
aF1068.7425537109375
aF1068.6492919921875
aF1068.7657470703125
aF1068.816650390625
aF1068.71630859375
aF1068.6732177734375
aF1068.5977783203125
aF1068.7021484375
aF1068.7196044921875
aF1068.71435546875
aF1068.7191162109375
aF1068.638427734375
aF1068.5830078125
aF1068.7125244140625
aF1068.640380859375
aF1068.6556396484375
aF1068.75146484375
aF1068.671142578125
aF1068.646728515625
aF1068.6927490234375
aF1068.81640625
aF1068.8494873046875
aF1068.6912841796875
aF1068.6976318359375
aF1068.7626953125
aF1068.72607421875
aF1068.74755859375
aF1068.6680908203125
aF1068.570556640625
aF1068.69287109375
aF1068.684814453125
aF1068.83935546875
aF1068.5635986328125
aF1068.54736328125
aF1068.48583984375
aF1068.5167236328125
aF1068.53173828125
aF1068.5205078125
aF1068.504638671875
aF1068.4639892578125
aF1068.5255126953125
aF1068.4305419921875
aF1068.61083984375
aF1068.4227294921875
aF1068.570556640625
aF1068.542724609375
aF1068.661376953125
aF1068.5223388671875
aF1068.4344482421875
aF1068.3775634765625
aF1068.636474609375
aF1068.61474609375
aF1068.524658203125
aF1068.5576171875
aF1068.5758056640625
aF1068.5745849609375
aF1068.5081787109375
aF1068.563720703125
aF1068.4456787109375
aF1068.5377197265625
aF1068.51318359375
aF1068.6065673828125
aF1068.36376953125
aF1068.4320068359375
aF1068.3333740234375
aF1068.40771484375
aF1068.2332763671875
aF1068.391845703125
as.