(dp0
S'training_loss'
p1
(lp2
F453.89739990234375
aF213.25799560546875
aF200.56304931640625
aF460.4740905761719
aF205.6681365966797
aF209.50698852539062
aF190.45790100097656
aF178.0808563232422
aF171.8545379638672
aF185.6345672607422
aF167.02906799316406
aF168.2498321533203
aF169.0243682861328
aF163.3031463623047
aF161.54458618164062
aF161.4740753173828
aF202.8758544921875
aF192.94374084472656
aF172.02053833007812
aF170.2680206298828
aF169.3184814453125
aF164.80091857910156
aF164.8904266357422
aF160.05471801757812
aF156.94686889648438
aF157.55230712890625
aF158.48318481445312
aF164.902587890625
aF155.65939331054688
aF163.62107849121094
aF158.52169799804688
aF159.54922485351562
aF157.2411346435547
aF150.26548767089844
aF152.11244201660156
aF149.92532348632812
aF152.2862091064453
aF158.009765625
aF154.52354431152344
aF150.9060821533203
aF145.66253662109375
aF141.92910766601562
aF143.17166137695312
aF145.22019958496094
aF305.7502746582031
aF153.93373107910156
aF143.66976928710938
aF157.50924682617188
aF140.2904815673828
aF143.835205078125
aF138.19117736816406
aF133.4723358154297
aF134.3018798828125
aF132.28439331054688
aF136.3682861328125
aF169.27305603027344
aF151.43621826171875
aF149.8836669921875
aF142.41111755371094
aF142.4658660888672
aF149.65689086914062
aF145.67449951171875
aF144.6795654296875
aF134.39804077148438
aF139.96966552734375
aF124.90904235839844
aF121.14305114746094
aF120.00272369384766
aF116.86809539794922
aF116.61405944824219
aF117.02246856689453
aF114.74009704589844
aF114.65839385986328
aF114.83236694335938
aF112.11170959472656
aF113.487548828125
aF111.61077880859375
aF109.77578735351562
aF110.03473663330078
aF109.31275177001953
aF111.61839294433594
aF109.2536392211914
aF109.11114501953125
aF107.73399353027344
aF106.6504898071289
aF105.7436294555664
aF106.79989624023438
aF104.58621978759766
aF107.11009216308594
aF105.3107681274414
aF104.16986083984375
aF103.9540023803711
aF102.005859375
aF103.4580078125
aF102.07443237304688
aF103.02775573730469
aF101.82779693603516
aF102.19153594970703
aF101.37236022949219
aF100.85115814208984
aF100.32183837890625
asS'validation_loss'
p3
(lp4
F452.11004638671875
aF210.51023864746094
aF201.9844207763672
aF459.1092834472656
aF209.74278259277344
aF209.94439697265625
aF191.7605743408203
aF183.77053833007812
aF186.9248046875
aF188.8668975830078
aF181.70733642578125
aF182.5470428466797
aF185.30223083496094
aF177.98497009277344
aF181.26748657226562
aF187.0374755859375
aF203.33189392089844
aF195.841796875
aF187.76280212402344
aF185.23768615722656
aF183.7074432373047
aF180.8329620361328
aF181.26663208007812
aF182.527099609375
aF179.5038604736328
aF178.082763671875
aF179.98403930664062
aF180.94436645507812
aF194.50416564941406
aF184.40756225585938
aF180.21340942382812
aF177.88125610351562
aF185.00082397460938
aF181.8118133544922
aF191.27894592285156
aF185.27281188964844
aF184.1621551513672
aF182.71983337402344
aF181.2246856689453
aF183.34860229492188
aF189.97828674316406
aF185.2406005859375
aF184.2474822998047
aF180.72613525390625
aF304.8675842285156
aF183.33229064941406
aF187.35409545898438
aF202.88616943359375
aF177.6680450439453
aF185.77932739257812
aF191.20205688476562
aF187.55152893066406
aF186.10594177246094
aF187.54562377929688
aF198.4008026123047
aF193.2777862548828
aF186.30532836914062
aF188.49612426757812
aF187.58859252929688
aF186.69309997558594
aF185.28353881835938
aF190.252685546875
aF184.98193359375
aF191.14170837402344
aF186.9903106689453
aF188.88320922851562
aF190.43287658691406
aF190.40586853027344
aF193.3074493408203
aF190.69808959960938
aF191.9349822998047
aF194.65342712402344
aF196.43719482421875
aF196.10693359375
aF197.80072021484375
aF193.13323974609375
aF203.3237762451172
aF204.3578643798828
aF201.4936981201172
aF203.1151885986328
aF198.4530029296875
aF201.4829559326172
aF197.66845703125
aF203.2696533203125
aF203.68121337890625
aF205.01808166503906
aF204.87083435058594
aF206.11776733398438
aF200.178466796875
aF201.13914489746094
aF203.60679626464844
aF204.719970703125
aF210.678466796875
aF203.50540161132812
aF203.93740844726562
aF204.41212463378906
aF211.1427001953125
aF204.33047485351562
aF203.7729034423828
aF205.72491455078125
aF209.8517608642578
as.