(dp0
S'training_loss'
p1
(lp2
F454.0285949707031
aF297.5025939941406
aF370.58026123046875
aF213.31588745117188
aF281.8966979980469
aF201.5675811767578
aF224.8507843017578
aF2742.037109375
aF555.6451416015625
aF191.35586547851562
aF183.63687133789062
aF185.7971649169922
aF185.47999572753906
aF232.6334686279297
aF191.97975158691406
aF185.755859375
aF179.07139587402344
aF176.33546447753906
aF174.36627197265625
aF181.3108673095703
aF177.1035919189453
aF175.3248748779297
aF176.13760375976562
aF176.4330596923828
aF172.79129028320312
aF171.1774139404297
aF169.66761779785156
aF178.01370239257812
aF175.05104064941406
aF175.1952362060547
aF169.21365356445312
aF175.51441955566406
aF168.89639282226562
aF171.8647918701172
aF166.91729736328125
aF168.3765106201172
aF165.1311798095703
aF167.4577178955078
aF167.35755920410156
aF167.15821838378906
aF175.6516571044922
aF168.25059509277344
aF167.58221435546875
aF162.7727813720703
aF176.9939727783203
aF168.24253845214844
aF162.58367919921875
aF164.99403381347656
aF162.70838928222656
aF172.2475128173828
aF166.76248168945312
aF162.2860107421875
aF166.8376007080078
aF158.90374755859375
aF160.3212890625
aF162.66615295410156
aF157.9262237548828
aF166.5278778076172
aF160.37367248535156
aF168.86280822753906
aF163.53448486328125
aF157.30606079101562
aF161.18960571289062
aF155.2588348388672
aF159.6375732421875
aF160.5806427001953
aF166.4342041015625
aF158.2382049560547
aF155.32882690429688
aF158.52752685546875
aF160.85565185546875
aF182.94671630859375
aF151.5859375
aF153.17002868652344
aF151.48670959472656
aF153.4586181640625
aF151.86740112304688
aF149.19427490234375
aF152.3432159423828
aF151.431884765625
aF150.14154052734375
aF1665.35546875
aF152.45387268066406
aF147.00376892089844
aF258.9149475097656
aF150.2152862548828
aF148.06480407714844
aF150.2748565673828
aF157.31040954589844
aF148.0456085205078
aF157.98617553710938
aF148.54049682617188
aF149.73776245117188
aF157.35800170898438
aF145.46963500976562
aF149.75254821777344
aF145.1841583251953
aF148.52032470703125
aF146.83929443359375
aF144.2300262451172
aF144.21673583984375
asS'validation_loss'
p3
(lp4
F452.2345275878906
aF300.2853698730469
aF344.3231201171875
aF213.9307861328125
aF275.6676025390625
aF206.54266357421875
aF220.6361846923828
aF2782.6796875
aF562.6170043945312
aF193.8863983154297
aF189.1863250732422
aF190.46800231933594
aF191.53062438964844
aF240.56146240234375
aF195.09291076660156
aF189.29617309570312
aF183.53524780273438
aF185.19122314453125
aF185.0499725341797
aF188.9995574951172
aF181.3450927734375
aF186.5870819091797
aF187.66015625
aF185.86563110351562
aF182.7952117919922
aF183.82275390625
aF184.70396423339844
aF188.25823974609375
aF186.53126525878906
aF184.92811584472656
aF185.40158081054688
aF186.4685821533203
aF181.03944396972656
aF183.30613708496094
aF182.74783325195312
aF181.5080108642578
aF183.40838623046875
aF183.90890502929688
aF188.18463134765625
aF183.42855834960938
aF197.20565795898438
aF191.678955078125
aF180.91966247558594
aF183.7392578125
aF192.24197387695312
aF184.08578491210938
aF179.67701721191406
aF183.99050903320312
aF182.33441162109375
aF195.75770568847656
aF181.19369506835938
aF183.35252380371094
aF193.3756866455078
aF198.29188537597656
aF186.9983673095703
aF180.70108032226562
aF188.4325408935547
aF185.94363403320312
aF186.72877502441406
aF194.0364990234375
aF187.7716064453125
aF183.6929168701172
aF189.9315185546875
aF190.06959533691406
aF187.64801025390625
aF188.99647521972656
aF193.20062255859375
aF183.47706604003906
aF185.05477905273438
aF190.29124450683594
aF185.118408203125
aF221.16525268554688
aF185.77178955078125
aF182.37350463867188
aF185.673828125
aF187.6702423095703
aF184.99658203125
aF186.61233520507812
aF185.58473205566406
aF187.551513671875
aF189.0266571044922
aF1662.494384765625
aF188.42095947265625
aF189.39332580566406
aF275.2112121582031
aF183.62387084960938
aF189.3791046142578
aF184.10321044921875
aF191.7280731201172
aF194.54737854003906
aF188.08645629882812
aF185.30438232421875
aF190.68345642089844
aF193.47633361816406
aF191.27545166015625
aF185.5675048828125
aF193.14508056640625
aF189.290283203125
aF183.95352172851562
aF192.13514709472656
aF185.74485778808594
as.