(dp0
S'training_loss'
p1
(lp2
F454.02960205078125
aF401.0742492675781
aF230.76806640625
aF214.92381286621094
aF212.88954162597656
aF212.06948852539062
aF208.81105041503906
aF205.3751678466797
aF199.6183624267578
aF182.8290557861328
aF181.56919860839844
aF177.5823974609375
aF179.77279663085938
aF173.06201171875
aF164.48233032226562
aF176.2119903564453
aF171.4910888671875
aF167.37879943847656
aF160.3845977783203
aF159.024169921875
aF156.1060791015625
aF150.21286010742188
aF155.4795379638672
aF146.62442016601562
aF151.52328491210938
aF156.1496124267578
aF142.13955688476562
aF142.0633544921875
aF141.40892028808594
aF136.2134246826172
aF151.36463928222656
aF154.84767150878906
aF137.6368865966797
aF171.37344360351562
aF140.40017700195312
aF132.8552703857422
aF138.1243133544922
aF127.88069915771484
aF129.5900115966797
aF127.72775268554688
aF125.37692260742188
aF125.59101867675781
aF131.64022827148438
aF135.57679748535156
aF128.68475341796875
aF121.25682830810547
aF122.25503540039062
aF117.88451385498047
aF117.8404312133789
aF118.8905029296875
aF130.14353942871094
aF123.84609985351562
aF121.86968231201172
aF123.11260223388672
aF116.55412292480469
aF114.90352630615234
aF115.8591079711914
aF114.13665771484375
aF145.63424682617188
aF111.1248779296875
aF113.27621459960938
aF108.4665298461914
aF117.35992431640625
aF138.03846740722656
aF122.1073989868164
aF119.43626403808594
aF499.9837951660156
aF460.5193176269531
aF462.73883056640625
aF279.260498046875
aF237.28065490722656
aF241.25961303710938
aF204.25135803222656
aF189.81298828125
aF188.20339965820312
aF182.07916259765625
aF180.09449768066406
aF185.7484588623047
aF177.63784790039062
aF185.40902709960938
aF171.97210693359375
aF170.4766082763672
aF170.6752471923828
aF170.23448181152344
aF167.95339965820312
aF166.052001953125
aF166.06329345703125
aF166.35154724121094
aF165.77334594726562
aF165.65321350097656
aF165.0554962158203
aF165.12454223632812
aF164.48838806152344
aF164.97061157226562
aF164.82237243652344
aF164.32772827148438
aF164.0211181640625
aF163.83587646484375
aF164.39166259765625
aF164.11492919921875
aF163.8043212890625
asS'validation_loss'
p3
(lp4
F452.2351989746094
aF401.9939270019531
aF227.50244140625
aF211.7560272216797
aF208.2013702392578
aF211.80081176757812
aF204.53318786621094
aF206.5088653564453
aF198.07542419433594
aF187.30319213867188
aF183.22042846679688
aF184.12281799316406
aF183.2886505126953
aF180.49424743652344
aF178.36109924316406
aF194.47442626953125
aF180.92562866210938
aF177.08396911621094
aF176.48379516601562
aF177.0625762939453
aF183.11387634277344
aF173.66355895996094
aF178.88888549804688
aF177.36940002441406
aF176.981201171875
aF177.5557861328125
aF177.0538330078125
aF178.84414672851562
aF179.00791931152344
aF183.43438720703125
aF212.06716918945312
aF183.1746368408203
aF176.24154663085938
aF197.3330078125
aF186.8255157470703
aF184.70306396484375
aF182.22305297851562
aF191.3441925048828
aF187.38278198242188
aF182.35537719726562
aF194.72268676757812
aF192.00393676757812
aF190.5361328125
aF180.10714721679688
aF187.1042938232422
aF186.80270385742188
aF190.39845275878906
aF196.0940704345703
aF195.96588134765625
aF186.52780151367188
aF192.7762908935547
aF192.14024353027344
aF182.14126586914062
aF191.18875122070312
aF196.20982360839844
aF196.1802520751953
aF195.33021545410156
aF193.41290283203125
aF196.78233337402344
aF193.93148803710938
aF192.53321838378906
aF208.76560974121094
aF190.75146484375
aF213.0145721435547
aF189.1498565673828
aF184.28823852539062
aF500.00494384765625
aF459.1099548339844
aF461.2822570800781
aF278.5257873535156
aF238.8889617919922
aF238.79486083984375
aF205.46182250976562
aF191.5852508544922
aF190.6214599609375
aF185.39346313476562
aF184.4442138671875
aF189.4468994140625
aF185.214111328125
aF189.42356872558594
aF181.4855194091797
aF183.60171508789062
aF183.52325439453125
aF183.70045471191406
aF181.90737915039062
aF181.5653839111328
aF182.64239501953125
aF181.40809631347656
aF182.33529663085938
aF182.68093872070312
aF182.57908630371094
aF184.31671142578125
aF184.18362426757812
aF182.24368286132812
aF182.1131591796875
aF183.02574157714844
aF183.39178466796875
aF183.32437133789062
aF182.53668212890625
aF183.2665252685547
aF183.29708862304688
as.