(dp0
S'training_loss'
p1
(lp2
F454.0292663574219
aF6442065.0
aF4184519.0
aF723336.625
aF25441.9609375
aF7007564288.0
aF16492391.0
aF270410.5625
aF183074.421875
aF191281.90625
aF46960521216.0
aF6429607424.0
aF13445659.0
aF113999608.0
aF24895168.0
aF5328432.0
aF2035112.625
aF233769.828125
aF329262.375
aF31768.193359375
aF288556.9375
aF81530.1640625
aF54018.54296875
aF54982.3671875
aF2542.258056640625
aF27536.416015625
aF67655.09375
aF20286.94140625
aF6637.7626953125
aF2565.989501953125
aF1460.0057373046875
aF1264.466064453125
aF2199.946044921875
aF4477.35595703125
aF16595.11328125
aF1264.8243408203125
aF3687.849365234375
aF13461.2353515625
aF26095.78515625
aF4514.3037109375
aF1212.0382080078125
aF12522.8017578125
aF1042.916748046875
aF4810.939453125
aF3511.830322265625
aF2469.191162109375
aF4835.53662109375
aF3821.798828125
aF1919.5430908203125
aF598.051513671875
aF641.0511474609375
aF560.4130859375
aF504.30535888671875
aF570.661376953125
aF537.6760864257812
aF618.5450439453125
aF755.6129150390625
aF494.6916198730469
aF1495.5980224609375
aF926.6509399414062
aF536.4328002929688
aF661.1812133789062
aF569.2993774414062
aF496.9702453613281
aF456.4132080078125
aF504.02630615234375
aF449.5329284667969
aF977.48779296875
aF487.7698669433594
aF453.6858215332031
aF459.35845947265625
aF495.8641052246094
aF113249.265625
aF779.8649291992188
aF2312.485107421875
aF617.3687133789062
aF478.864013671875
aF539.8822631835938
aF351.8017883300781
aF295.8446350097656
aF296.30029296875
aF298.4645690917969
aF411.86505126953125
aF346.5158386230469
aF286.5992126464844
aF280.9541931152344
aF279.81671142578125
aF281.8065490722656
aF387.80615234375
aF265.12103271484375
aF261.03570556640625
aF260.2123107910156
aF269.52288818359375
aF263.5133056640625
aF260.94342041015625
aF250.69566345214844
aF253.4203643798828
aF258.9190673828125
aF275.353515625
aF249.34552001953125
aF255.9268798828125
aF243.4609375
aF247.79641723632812
aF228.51693725585938
aF227.79818725585938
aF229.7081298828125
aF226.38851928710938
aF224.82334899902344
aF225.3697509765625
aF229.28591918945312
aF224.4853973388672
aF224.420166015625
aF225.59130859375
aF228.90924072265625
aF224.34600830078125
aF221.85118103027344
aF226.69557189941406
aF224.49087524414062
aF219.282470703125
aF225.62744140625
aF254.51007080078125
aF220.23512268066406
aF236.18807983398438
aF226.4765625
aF239.46302795410156
aF223.81761169433594
aF215.8996124267578
aF222.96766662597656
aF213.57469177246094
aF222.80810546875
aF214.8226318359375
aF222.57467651367188
aF213.01409912109375
aF212.2433319091797
aF214.71267700195312
aF230.71290588378906
aF209.82196044921875
aF210.05828857421875
aF213.2536163330078
aF227.75149536132812
aF212.65086364746094
aF215.57118225097656
aF210.59339904785156
aF209.95343017578125
aF209.9173126220703
aF206.90408325195312
aF209.19039916992188
aF208.80528259277344
aF207.56692504882812
aF206.73533630371094
aF222.67715454101562
aF211.458984375
aF208.2494659423828
aF207.75303649902344
aF221.31651306152344
aF203.61306762695312
aF204.19932556152344
aF206.3717498779297
aF205.78713989257812
aF216.0944061279297
aF204.4114990234375
aF203.20167541503906
aF214.7774658203125
aF201.05331420898438
aF215.25155639648438
aF202.49691772460938
aF203.43429565429688
aF202.5004119873047
aF205.61729431152344
aF203.4889678955078
aF201.50477600097656
aF203.0487518310547
aF202.25608825683594
aF205.37118530273438
aF204.35153198242188
aF195.927001953125
aF195.9090118408203
aF195.84886169433594
aF198.5071563720703
aF195.2312469482422
aF195.0211944580078
aF195.10787963867188
aF194.90847778320312
aF194.85984802246094
aF196.11448669433594
aF195.00669860839844
aF195.5545196533203
aF194.80149841308594
aF194.82899475097656
aF195.71731567382812
aF194.8677978515625
aF195.3448486328125
aF195.05210876464844
aF194.9395751953125
aF194.2654266357422
aF194.73927307128906
aF194.32261657714844
aF194.0887908935547
aF194.22824096679688
aF194.06973266601562
aF194.32015991210938
asS'validation_loss'
p3
(lp4
F452.2350769042969
aF6486284.0
aF4192052.25
aF730742.625
aF26033.10546875
aF7086097408.0
aF16700753.0
aF275219.46875
aF185597.28125
aF193208.78125
aF47000743936.0
aF6436099072.0
aF18143128.0
aF114990472.0
aF25065274.0
aF5382550.0
aF2057996.875
aF233586.421875
aF334608.875
aF34426.265625
aF291516.0625
aF82542.34375
aF56511.10546875
aF55644.859375
aF2502.450439453125
aF27727.759765625
aF69151.5
aF20518.26171875
aF6729.60009765625
aF2639.713623046875
aF1487.359619140625
aF1328.2685546875
aF2242.07470703125
aF4506.57470703125
aF16756.154296875
aF1295.8603515625
aF3725.25048828125
aF13551.603515625
aF26209.947265625
aF4539.0849609375
aF1220.871826171875
aF12694.90625
aF1049.145751953125
aF4867.822265625
aF3532.316162109375
aF2494.51025390625
aF4885.72216796875
aF3865.46142578125
aF1945.351806640625
aF596.8899536132812
aF642.8046875
aF558.5091552734375
aF503.2542419433594
aF570.3605346679688
aF536.4012451171875
aF620.0159912109375
aF759.54541015625
aF493.99664306640625
aF1504.3812255859375
aF929.1471557617188
aF536.06201171875
aF661.590576171875
aF568.7774658203125
aF496.839599609375
aF454.7034912109375
aF502.6454162597656
aF444.7272033691406
aF979.6829223632812
aF486.5657958984375
aF451.2999267578125
aF457.76422119140625
aF520.1707763671875
aF113842.8828125
aF781.304443359375
aF2306.480224609375
aF616.9945678710938
aF477.6632385253906
aF538.7588500976562
aF350.64404296875
aF289.99835205078125
aF286.81048583984375
aF290.196533203125
aF410.52227783203125
aF359.2942199707031
aF279.1945495605469
aF272.90460205078125
aF274.8647766113281
aF281.3288269042969
aF412.630859375
aF259.0133056640625
aF257.0569152832031
aF259.11883544921875
aF268.31353759765625
aF257.4820556640625
aF256.3243408203125
aF250.09832763671875
aF251.0321502685547
aF257.55987548828125
aF277.0376281738281
aF247.26541137695312
aF252.2406463623047
aF248.14166259765625
aF252.34690856933594
aF230.65609741210938
aF230.49832153320312
aF231.58859252929688
aF232.47315979003906
aF227.65121459960938
aF232.12408447265625
aF233.8748321533203
aF237.6525421142578
aF229.6880645751953
aF228.31993103027344
aF230.680908203125
aF227.8592529296875
aF230.34017944335938
aF229.4622802734375
aF230.5738525390625
aF229.45706176757812
aF234.30657958984375
aF249.42762756347656
aF226.34542846679688
aF235.929931640625
aF227.7478485107422
aF245.58837890625
aF235.59222412109375
aF224.75201416015625
aF227.8443145751953
aF224.07627868652344
aF225.8768768310547
aF227.41085815429688
aF229.33985900878906
aF223.47206115722656
aF220.5117645263672
aF232.2826385498047
aF242.603271484375
aF221.2052459716797
aF225.56256103515625
aF223.95326232910156
aF241.6025390625
aF224.6555633544922
aF231.99288940429688
aF219.68008422851562
aF220.55580139160156
aF222.16441345214844
aF234.09085083007812
aF233.1737518310547
aF241.36366271972656
aF237.196044921875
aF234.28724670410156
aF225.6086883544922
aF226.48658752441406
aF218.66554260253906
aF228.0419464111328
aF230.4723663330078
aF219.92886352539062
aF218.14508056640625
aF218.42459106445312
aF217.31903076171875
aF224.5962371826172
aF226.0825653076172
aF216.0980987548828
aF235.7666473388672
aF216.7769012451172
aF219.80421447753906
aF216.3317413330078
aF217.84701538085938
aF213.62603759765625
aF221.54737854003906
aF213.9960174560547
aF214.198486328125
aF219.17233276367188
aF220.84063720703125
aF224.21629333496094
aF222.99252319335938
aF212.5262451171875
aF212.6775360107422
aF211.73245239257812
aF218.43724060058594
aF212.45155334472656
aF212.16668701171875
aF212.08538818359375
aF212.23219299316406
aF212.30636596679688
aF211.53912353515625
aF213.78842163085938
aF214.39846801757812
aF213.8319854736328
aF211.37319946289062
aF214.48121643066406
aF212.64410400390625
aF213.70941162109375
aF213.3602752685547
aF213.84603881835938
aF213.26332092285156
aF210.9770050048828
aF213.47085571289062
aF212.70864868164062
aF212.5516815185547
aF213.5671844482422
aF211.4890594482422
as.