(dp0
S'training_loss'
p1
(lp2
F453.8969421386719
aF240.5469512939453
aF231.13868713378906
aF212.03761291503906
aF206.29696655273438
aF210.24423217773438
aF269.42095947265625
aF199.4716796875
aF206.29798889160156
aF193.49327087402344
aF204.92018127441406
aF186.60922241210938
aF194.7358856201172
aF187.83370971679688
aF188.11444091796875
aF194.79806518554688
aF196.20169067382812
aF182.46534729003906
aF178.84750366210938
aF189.85060119628906
aF185.71014404296875
aF184.43905639648438
aF177.82736206054688
aF180.08358764648438
aF180.6155548095703
aF181.9232940673828
aF177.8236846923828
aF177.0906524658203
aF177.0605010986328
aF175.8228759765625
aF176.1363067626953
aF178.02896118164062
aF179.38148498535156
aF173.30897521972656
aF178.31005859375
aF177.79791259765625
aF174.7899169921875
aF171.8492889404297
aF173.08665466308594
aF178.16000366210938
aF173.751220703125
aF170.49378967285156
aF176.44915771484375
aF198.10800170898438
aF174.6904754638672
aF177.1975555419922
aF210.39202880859375
aF171.52272033691406
aF171.77064514160156
aF173.5897674560547
aF170.4943084716797
aF171.87042236328125
aF171.6144561767578
aF159.98133850097656
aF158.53135681152344
aF157.73773193359375
aF157.2666473388672
aF156.71096801757812
aF157.6721954345703
aF155.406005859375
aF155.11024475097656
aF155.02288818359375
aF155.43386840820312
aF154.6590118408203
aF155.9740753173828
aF153.64613342285156
aF153.94068908691406
aF153.47451782226562
aF152.63018798828125
aF152.17405700683594
aF153.4136962890625
aF152.49769592285156
aF151.64659118652344
aF151.2171173095703
aF150.86399841308594
aF151.29505920410156
aF151.10691833496094
aF151.19866943359375
aF150.77769470214844
aF150.96600341796875
aF150.57249450683594
aF152.8556365966797
aF149.00607299804688
aF149.1116943359375
aF151.5932159423828
aF149.32012939453125
aF148.3270263671875
aF148.248779296875
aF149.56094360351562
aF150.4757843017578
aF148.4171142578125
aF148.81277465820312
aF148.6608123779297
aF147.58058166503906
aF148.5203399658203
aF149.32144165039062
aF148.19078063964844
aF147.15000915527344
aF146.96551513671875
aF146.15028381347656
aF146.18089294433594
asS'validation_loss'
p3
(lp4
F452.10882568359375
aF241.18458557128906
aF227.5088653564453
aF209.6954803466797
aF208.2369842529297
aF207.52700805664062
aF269.0914001464844
aF204.43405151367188
aF210.0769805908203
aF199.0211944580078
aF202.5897674560547
aF190.90402221679688
aF198.8384552001953
aF195.2972869873047
aF189.05886840820312
aF195.7506866455078
aF209.94088745117188
aF186.48513793945312
aF183.82115173339844
aF191.47120666503906
aF188.37681579589844
aF188.52000427246094
aF183.85702514648438
aF187.68923950195312
aF183.96658325195312
aF188.56674194335938
aF183.93206787109375
aF180.90748596191406
aF182.88214111328125
aF184.66473388671875
aF188.3818359375
aF189.26133728027344
aF189.91273498535156
aF186.16506958007812
aF183.28953552246094
aF185.4158477783203
aF184.83770751953125
aF186.32546997070312
aF184.80101013183594
aF192.75733947753906
aF182.18099975585938
aF185.6076202392578
aF181.97337341308594
aF201.0189666748047
aF193.0930633544922
aF185.9590301513672
aF214.76731872558594
aF185.95399475097656
aF181.3762664794922
aF188.56475830078125
aF184.8156280517578
aF182.63201904296875
aF183.1106719970703
aF177.14810180664062
aF177.65199279785156
aF175.37664794921875
aF174.9499053955078
aF176.84317016601562
aF174.44300842285156
aF177.95140075683594
aF179.30345153808594
aF177.28564453125
aF175.61593627929688
aF176.51113891601562
aF176.6985626220703
aF177.49891662597656
aF178.63746643066406
aF178.6286163330078
aF179.8380126953125
aF180.07925415039062
aF177.90573120117188
aF179.68539428710938
aF179.3245849609375
aF180.53704833984375
aF179.5561065673828
aF179.59349060058594
aF180.5188751220703
aF180.01242065429688
aF178.3900604248047
aF178.90586853027344
aF177.96649169921875
aF179.90711975097656
aF182.55557250976562
aF180.88043212890625
aF182.36244201660156
aF182.43246459960938
aF184.2622833251953
aF183.4951171875
aF180.90032958984375
aF179.0193634033203
aF181.37240600585938
aF185.4477996826172
aF181.14413452148438
aF183.2504425048828
aF181.01171875
aF180.59735107421875
aF181.01983642578125
aF184.48484802246094
aF182.57691955566406
aF183.4712371826172
aF183.5630645751953
as.