(dp0
S'training_loss'
p1
(lp2
F497.6833801269531
aF226.51600646972656
aF177.44046020507812
aF178.701171875
aF153.0188751220703
aF165.1170196533203
aF148.86383056640625
aF140.36936950683594
aF139.3909454345703
aF130.03759765625
aF119.21920013427734
aF116.60279083251953
aF109.71046447753906
aF90.18248748779297
aF93.975830078125
aF88.72354125976562
aF74.36168670654297
aF72.82959747314453
aF70.49988555908203
aF96.87134552001953
aF68.04434204101562
aF64.78636169433594
aF69.92627716064453
aF57.06682205200195
aF52.5829963684082
aF63.43974304199219
aF55.91032409667969
aF57.71723937988281
aF48.1986198425293
aF50.94765090942383
aF48.229156494140625
aF41.779727935791016
aF40.68320846557617
aF45.70954895019531
aF39.32195281982422
aF42.18902587890625
aF42.06552505493164
aF34.72584533691406
aF39.92932891845703
aF34.833961486816406
aF36.3174934387207
aF23.430116653442383
aF20.52545738220215
aF19.17405891418457
aF19.540437698364258
aF21.52104377746582
aF22.36736488342285
aF40.60975646972656
aF15.271416664123535
aF21.910961151123047
aF15.395146369934082
aF14.709235191345215
aF14.09610652923584
aF13.93295955657959
aF14.629477500915527
aF12.975558280944824
aF12.714190483093262
aF18.772544860839844
aF12.980447769165039
aF18.337345123291016
aF16.40862274169922
asS'validation_loss'
p3
(lp4
F481.9119873046875
aF225.4846954345703
aF171.4600067138672
aF172.2165069580078
aF151.08096313476562
aF162.95654296875
aF153.87115478515625
aF146.49533081054688
aF148.1170654296875
aF149.3134002685547
aF143.41107177734375
aF147.51625061035156
aF144.2829132080078
aF132.9860382080078
aF131.69068908691406
aF135.8480224609375
aF127.95744323730469
aF127.29266357421875
aF122.88671875
aF135.79367065429688
aF125.01765441894531
aF125.13006591796875
aF127.58647918701172
aF124.06663513183594
aF120.04869079589844
aF127.06563568115234
aF123.57915496826172
aF126.11265563964844
aF119.44988250732422
aF121.17103576660156
aF122.73209381103516
aF121.48300170898438
aF121.18128967285156
aF122.61404418945312
aF121.25550079345703
aF122.26973724365234
aF122.05559539794922
aF118.70775604248047
aF121.64309692382812
aF118.29663848876953
aF118.27799987792969
aF116.98299407958984
aF117.20977020263672
aF117.03413391113281
aF116.80436706542969
aF117.1891860961914
aF118.0306396484375
aF121.63407135009766
aF116.84461212158203
aF117.67059326171875
aF116.85250091552734
aF116.87782287597656
aF116.91869354248047
aF116.98795318603516
aF116.98407745361328
aF117.4395751953125
aF116.7665023803711
aF117.61907958984375
aF117.1668701171875
aF118.19677734375
aF117.23433685302734
as.