(dp0
S'training_loss'
p1
(lp2
F606.3004760742188
aF606.0070190429688
aF599.41455078125
aF527.9033813476562
aF73.84654998779297
aF3310.338623046875
aF78.34307098388672
aF453.2536315917969
aF554.6381225585938
aF586.14453125
aF596.7571411132812
aF600.5565795898438
aF601.8284301757812
aF601.8742065429688
aF600.7018432617188
aF597.9019775390625
aF591.65283203125
aF576.6869506835938
aF566.7377319335938
aF531.5191650390625
aF352.2057800292969
aF6135.9267578125
aF606.3936767578125
aF606.3943481445312
aF606.3634033203125
aF606.3671264648438
aF606.0877075195312
aF601.6752319335938
aF555.9146118164062
aF73.83271789550781
aF7588.27685546875
aF268.8387145996094
aF231.4672088623047
aF158.9087677001953
aF134.42581176757812
aF122.9610824584961
aF110.7401351928711
aF124.57604217529297
aF104.84198760986328
aF100.79602813720703
aF104.82113647460938
aF105.92544555664062
aF120.27030944824219
aF93.59600830078125
aF93.69731903076172
aF135.74217224121094
aF97.29003143310547
aF90.68909454345703
aF91.42343139648438
aF210.57444763183594
aF134.65316772460938
aF115.61072540283203
aFnan
aFnan
aFnan
aFnan
aFnan
aFnan
aFnan
aFnan
aFnan
asS'validation_loss'
p3
(lp4
F568.1088256835938
aF567.6967163085938
aF558.4494018554688
aF458.08013916015625
aF611.8749389648438
aF5223.42919921875
aF540.6453247070312
aF352.8417053222656
aF495.4247131347656
aF539.7470092773438
aF554.6810913085938
aF560.0303955078125
aF561.82568359375
aF561.9032592773438
aF560.28564453125
aF556.4273071289062
aF547.8360595703125
aF527.2822265625
aF513.3355102539062
aF463.8954162597656
aF211.7833251953125
aF9202.9287109375
aF568.2398681640625
aF568.2408447265625
aF568.2059936523438
aF568.197509765625
aF567.8034057617188
aF561.5988159179688
aF497.1922912597656
aF564.05224609375
aF11251.7958984375
aF301.08868408203125
aF252.3984375
aF207.3415069580078
aF216.90736389160156
aF193.99505615234375
aF204.1779022216797
aF228.57998657226562
aF216.05419921875
aF199.74252319335938
aF204.92877197265625
aF186.312255859375
aF192.02621459960938
aF195.90353393554688
aF192.73818969726562
aF204.26278686523438
aF205.60317993164062
aF219.8826446533203
aF222.1096954345703
aF291.080078125
aF217.542724609375
aF206.44883728027344
aFnan
aFnan
aFnan
aFnan
aFnan
aFnan
aFnan
aFnan
aFnan
as.