(dp0
S'training_loss'
p1
(lp2
F497.8392333984375
aF284.5779724121094
aF171.16265869140625
aF166.7332763671875
aF154.42108154296875
aF180.50704956054688
aF149.7994384765625
aF145.16485595703125
aF142.54824829101562
aF142.5951385498047
aF130.27651977539062
aF133.1042022705078
aF109.95214080810547
aF102.82535552978516
aF90.63384246826172
aF86.57132720947266
aF77.93458557128906
aF69.23689270019531
aF71.15921783447266
aF60.34794998168945
aF56.368186950683594
aF63.50812530517578
aF52.42189407348633
aF50.58433151245117
aF47.20823669433594
aF49.70977783203125
aF44.60497283935547
aF48.378021240234375
aF45.437599182128906
aF39.941200256347656
aF36.57716369628906
aF44.09292221069336
aF33.88703536987305
aF34.39148712158203
aF34.64604187011719
aF31.703237533569336
aF30.745820999145508
aF29.137197494506836
aF32.77470779418945
aF27.345773696899414
aF28.67828369140625
aF27.91897201538086
aF27.01241111755371
aF28.826580047607422
aF36.344146728515625
aF23.729156494140625
aF23.245281219482422
aF28.542522430419922
aF25.848968505859375
aF33.55888748168945
aF21.233680725097656
aF20.80069351196289
aF20.836368560791016
aF20.75724220275879
aF24.63823890686035
aF20.692928314208984
aF20.17139434814453
aF18.592117309570312
aF19.500791549682617
aF17.95092010498047
aF18.182649612426758
asS'validation_loss'
p3
(lp4
F482.06890869140625
aF278.08990478515625
aF168.15284729003906
aF165.0983428955078
aF150.5792236328125
aF180.76873779296875
aF145.7401580810547
aF144.23617553710938
aF146.46958923339844
aF148.51931762695312
aF143.34774780273438
aF144.72509765625
aF130.67056274414062
aF132.577392578125
aF126.74901580810547
aF127.17476654052734
aF125.52693176269531
aF121.10018920898438
aF123.28386688232422
aF120.03746795654297
aF118.07681274414062
aF121.11297607421875
aF117.40432739257812
aF119.99116516113281
aF117.31193542480469
aF117.23768615722656
aF119.72782897949219
aF123.95875549316406
aF117.2525863647461
aF117.90496063232422
aF117.95674133300781
aF117.91033935546875
aF116.62538146972656
aF119.3197021484375
aF117.71629333496094
aF119.37760162353516
aF117.1819076538086
aF119.23678588867188
aF118.89156341552734
aF117.24463653564453
aF117.83396911621094
aF116.59688568115234
aF115.14887237548828
aF119.43074798583984
aF120.4886703491211
aF117.04978942871094
aF119.85836029052734
aF119.51799774169922
aF119.43098449707031
aF121.7666015625
aF117.52790069580078
aF120.09942626953125
aF117.9991683959961
aF120.09362030029297
aF119.72554016113281
aF117.85306549072266
aF120.52498626708984
aF116.49420166015625
aF118.75926208496094
aF116.01663208007812
aF118.83397674560547
as.