(dp0
S'training_loss'
p1
(lp2
F613.2560424804688
aF141.80123901367188
aF146.0038604736328
aF139.05734252929688
asS'validation_loss'
p3
(lp4
F620.0220336914062
aF145.3196258544922
aF148.023193359375
aF143.09800720214844
as.