(dp0
S'training_loss'
p1
(lp2
F497.7859191894531
aF219.82009887695312
aF156.7885284423828
aF153.8656005859375
aF152.60154724121094
aF149.79019165039062
aF149.13555908203125
aF148.78953552246094
aF166.64215087890625
aF145.6210174560547
aF160.42715454101562
aF150.31695556640625
aF147.1682891845703
aF159.16558837890625
aF144.18666076660156
aF159.97523498535156
aF149.96507263183594
aF154.3945770263672
aF145.2213897705078
aF146.0071258544922
aF143.72802734375
aF142.09632873535156
aF140.40225219726562
aF137.79673767089844
aF137.6234130859375
aF136.8889617919922
aF134.6156463623047
aF134.51646423339844
aF137.15870666503906
aF134.35073852539062
aF131.03350830078125
aF134.17816162109375
aF131.02194213867188
aF129.993896484375
aF128.87232971191406
aF128.73031616210938
aF124.91398620605469
aF136.52841186523438
aF127.93304443359375
aF129.65438842773438
aF126.5748519897461
aF126.28130340576172
aF122.3849868774414
aF118.5431900024414
aF120.55049896240234
aF121.4758529663086
aF123.89668273925781
aF126.4791488647461
aF118.6846694946289
aF115.54730987548828
aF116.3486328125
aF116.2589111328125
aF113.03357696533203
aF114.98905944824219
aF116.20917510986328
aF119.36614227294922
aF113.27005004882812
aF111.5676498413086
aF111.43392944335938
aF110.65828704833984
aF110.16207885742188
aF108.73184967041016
aF108.02760314941406
aF116.03180694580078
aF108.08868408203125
aF106.13329315185547
aF112.08629608154297
aF112.47713470458984
aF108.3931655883789
aF109.18521118164062
aF106.93830108642578
aF104.57328033447266
aF105.8484878540039
aF103.13982391357422
aF104.03266143798828
aF114.75521850585938
aF105.93265533447266
aF110.40585327148438
aF105.88431549072266
aF101.30704498291016
aF108.512939453125
aF100.83119201660156
aF99.97023010253906
aF105.96024322509766
aF105.49531555175781
aF104.55522918701172
aF100.83980560302734
aF99.13394927978516
aF103.89031219482422
aF99.59789276123047
aF97.19889831542969
asS'validation_loss'
p3
(lp4
F482.0155334472656
aF215.71624755859375
aF150.74716186523438
aF151.7139892578125
aF147.3575897216797
aF147.13768005371094
aF147.04165649414062
aF147.24159240722656
aF162.2139129638672
aF143.16690063476562
aF160.77024841308594
aF146.46604919433594
aF144.9841766357422
aF158.98374938964844
aF142.6171875
aF158.92733764648438
aF148.42202758789062
aF152.6357421875
aF145.27529907226562
aF147.86538696289062
aF146.48695373535156
aF143.1328887939453
aF143.75845336914062
aF141.5504150390625
aF144.9232635498047
aF141.81820678710938
aF141.0087432861328
aF145.33145141601562
aF148.42276000976562
aF147.3103790283203
aF147.7953643798828
aF145.44003295898438
aF146.64585876464844
aF144.37513732910156
aF145.6625213623047
aF145.74658203125
aF148.55160522460938
aF156.05760192871094
aF148.19338989257812
aF153.0816650390625
aF156.60955810546875
aF151.25869750976562
aF150.94949340820312
aF147.71142578125
aF153.5173797607422
aF152.55136108398438
aF154.75222778320312
aF157.04998779296875
aF148.20286560058594
aF152.49307250976562
aF154.1329803466797
aF151.6815185546875
aF148.93397521972656
aF153.5001220703125
aF147.7443084716797
aF155.57278442382812
aF152.25189208984375
aF149.3031463623047
aF148.0747528076172
aF152.30154418945312
aF148.7723846435547
aF150.2099151611328
aF149.51275634765625
aF150.6977081298828
aF150.10443115234375
aF149.82345581054688
aF156.29063415527344
aF153.81837463378906
aF153.9838104248047
aF151.94781494140625
aF149.49151611328125
aF150.70933532714844
aF147.82717895507812
aF150.58529663085938
aF149.46253967285156
aF156.92303466796875
aF153.95306396484375
aF155.8929443359375
aF155.32493591308594
aF152.84915161132812
aF156.81253051757812
aF153.50674438476562
aF150.1770477294922
aF156.61416625976562
aF152.30294799804688
aF152.342529296875
aF153.04302978515625
aF152.8675537109375
aF155.421875
aF153.0049285888672
aF150.3682403564453
as.