(dp0
S'training_loss'
p1
(lp2
F454.0279541015625
aF213.7982940673828
aF221.0943145751953
aF217.36672973632812
aF213.33494567871094
aF217.16244506835938
aF196.814208984375
aF210.8351593017578
aF187.15049743652344
aF193.37989807128906
aF180.16123962402344
aF207.23936462402344
aF178.443115234375
aF171.75765991210938
aF181.6283416748047
aF168.0325164794922
aF165.78518676757812
aF164.01170349121094
aF445.2483825683594
aF161.0772247314453
aF154.391357421875
aF154.96119689941406
aF155.35391235351562
aF150.13998413085938
aF151.40101623535156
aF148.86856079101562
aF152.56471252441406
aF143.8594512939453
aF460.5893249511719
aF284.40545654296875
aF173.38140869140625
aF163.31651306152344
aF161.05975341796875
aF206.69790649414062
aF157.356201171875
aF153.85414123535156
aF154.12757873535156
aF153.90834045410156
aF155.92601013183594
aF148.21743774414062
aF153.32359313964844
aF152.6501922607422
aF158.65789794921875
aF199.14395141601562
aF173.8005828857422
aF166.41281127929688
aF154.42201232910156
aF369.44439697265625
aF149.25253295898438
aF162.1702423095703
aF148.9754180908203
aF138.20297241210938
aF135.15850830078125
aF133.381103515625
aF132.04734802246094
aF130.14837646484375
aF130.7903289794922
aF128.23800659179688
aF131.5689239501953
aF127.68990325927734
aF125.13043975830078
asS'validation_loss'
p3
(lp4
F452.2347717285156
aF209.78070068359375
aF219.89450073242188
aF212.13604736328125
aF209.6552276611328
aF212.6707305908203
aF196.18202209472656
aF210.3740997314453
aF191.9569549560547
aF194.60186767578125
aF186.8568878173828
aF207.7587890625
aF184.50784301757812
aF184.4127197265625
aF191.45738220214844
aF191.97909545898438
aF183.69345092773438
aF182.86968994140625
aF449.20428466796875
aF182.25244140625
aF180.558837890625
aF190.4840850830078
aF182.5087127685547
aF183.59552001953125
aF180.90252685546875
aF184.87704467773438
aF183.12045288085938
aF186.08255004882812
aF458.9401550292969
aF283.38592529296875
aF196.28643798828125
aF193.35450744628906
aF189.72161865234375
aF224.72018432617188
aF188.3968505859375
aF190.2077178955078
aF190.2772674560547
aF184.960693359375
aF186.5661163330078
aF187.55419921875
aF185.5081329345703
aF184.58880615234375
aF185.3645782470703
aF219.1863555908203
aF206.58148193359375
aF203.4442596435547
aF193.4873809814453
aF399.3105163574219
aF194.2483673095703
aF192.71160888671875
aF200.2376708984375
aF195.16815185546875
aF204.48031616210938
aF193.11402893066406
aF197.9519805908203
aF201.35263061523438
aF196.4430694580078
aF202.81781005859375
aF200.99734497070312
aF199.32376098632812
aF200.9691619873047
as.