(dp0
S'training_loss'
p1
(lp2
F497.7859191894531
aF254.67303466796875
aF257.28533935546875
aF182.73818969726562
aF174.2595977783203
aF173.53604125976562
aF172.6390838623047
aF169.0421142578125
aF171.4662322998047
aF168.48861694335938
aF175.385009765625
aF172.5224609375
aF165.45654296875
aF163.4575958251953
aF161.39329528808594
aF153.49072265625
aF147.84848022460938
aF140.84019470214844
aF130.885009765625
aF117.03429412841797
aF110.6958236694336
aF106.66307830810547
aF115.86338806152344
aF105.30384063720703
aF94.3990707397461
aF106.74349975585938
aF95.8139419555664
aF89.89309692382812
aF90.27971649169922
aF89.62217712402344
aF84.2013168334961
aF79.1988296508789
aF74.24044799804688
aF76.5752182006836
aF72.56311798095703
aF71.05204010009766
aF69.28575897216797
aF76.3332748413086
aF70.09062194824219
aF79.08294677734375
aF83.7630386352539
aF65.43706512451172
aF66.8143539428711
aF67.29219055175781
aF68.73009490966797
aF69.15316772460938
aF90.61994171142578
aF73.4922866821289
aF76.8616714477539
aF68.6539306640625
aF66.73201751708984
aF59.531341552734375
aF62.64458465576172
aF66.53849792480469
aF57.54619598388672
aF63.704437255859375
aF64.09060668945312
aF58.11357879638672
aF59.250877380371094
aF82.29292297363281
aF67.41680145263672
asS'validation_loss'
p3
(lp4
F482.0155334472656
aF248.78317260742188
aF250.5345916748047
aF177.17333984375
aF168.40484619140625
aF169.5028839111328
aF164.15582275390625
aF160.5686492919922
aF162.1510772705078
aF161.2399444580078
aF167.89312744140625
aF162.87413024902344
aF158.1301727294922
aF156.5787353515625
aF153.78724670410156
aF148.49844360351562
aF149.27806091308594
aF148.2250213623047
aF142.85972595214844
aF142.2891082763672
aF140.09642028808594
aF139.3138427734375
aF150.2032470703125
aF138.85000610351562
aF136.10816955566406
aF144.9215545654297
aF141.19064331054688
aF134.8312530517578
aF135.68051147460938
aF139.38232421875
aF137.6932830810547
aF137.24961853027344
aF133.84927368164062
aF134.79940795898438
aF132.76271057128906
aF137.0001678466797
aF136.88685607910156
aF138.0732421875
aF136.13723754882812
aF141.5672149658203
aF144.68954467773438
aF131.99700927734375
aF134.76939392089844
aF135.40744018554688
aF138.0689697265625
aF136.64761352539062
aF147.86643981933594
aF140.763671875
aF143.48060607910156
aF135.7177276611328
aF137.72109985351562
aF135.07791137695312
aF136.341796875
aF138.8311767578125
aF132.23196411132812
aF135.74334716796875
aF137.8022003173828
aF134.2489776611328
aF135.55438232421875
aF146.7860107421875
aF137.50270080566406
as.