(dp0
S'training_loss'
p1
(lp2
F433.3180236816406
aF1682.612548828125
aF638.0180053710938
aF45375221760.0
aF6993991680.0
aF2453912064.0
aF881850624.0
aF3265406976.0
aF34714877952.0
aF2790962944.0
aF13053101867008.0
aFnan
aFnan
aFnan
aFnan
aFnan
aFnan
aFnan
aFnan
aFnan
aFnan
aFnan
aFnan
aFnan
aFnan
aFnan
aFnan
aFnan
aFnan
aFnan
aFnan
asS'validation_loss'
p3
(lp4
F428.0821838378906
aF2422.5908203125
aF664.5792236328125
aF46146224128.0
aF7272056832.0
aF5063510528.0
aF903297024.0
aF14563251200.0
aF34827612160.0
aF2839418368.0
aF13300778663936.0
aFnan
aFnan
aFnan
aFnan
aFnan
aFnan
aFnan
aFnan
aFnan
aFnan
aFnan
aFnan
aFnan
aFnan
aFnan
aFnan
aFnan
aFnan
aFnan
aFnan
as.