(dp0
S'training_loss'
p1
(lp2
F497.8565368652344
aF185.97923278808594
aF162.1125030517578
aF157.9967803955078
aF156.6417236328125
aF148.4507293701172
aF158.97813415527344
aF150.5155029296875
aF145.32196044921875
aF144.00645446777344
aF144.59945678710938
aF142.73789978027344
aF138.44053649902344
aF136.60968017578125
aF137.99510192871094
aF132.9542999267578
aF139.250732421875
aF133.4803009033203
aF134.3621063232422
aF127.18795013427734
aF122.98153686523438
aF125.46515655517578
aF126.86870574951172
aF119.03852081298828
aF117.61273193359375
aF113.11780548095703
aF131.30796813964844
aF113.5615234375
aF108.98896789550781
aF108.27140808105469
aF104.8393325805664
aF109.75763702392578
aF105.99095153808594
aF101.9825668334961
aF98.4868392944336
aF97.93035125732422
aF98.8974838256836
aF97.63916015625
aF95.83470916748047
aF91.82233428955078
aF92.16526794433594
aF90.39261627197266
aF89.37825775146484
aF90.13233184814453
aF86.1428451538086
aF92.1171646118164
aF85.5111083984375
aF85.33584594726562
aF89.31543731689453
aF81.31951904296875
aF83.97872161865234
asS'validation_loss'
p3
(lp4
F482.0863037109375
aF180.252197265625
aF153.85166931152344
aF152.8473358154297
aF153.79315185546875
aF144.41278076171875
aF159.11647033691406
aF146.9267120361328
aF142.71971130371094
aF142.37181091308594
aF143.27392578125
aF143.321044921875
aF138.25054931640625
aF138.19692993164062
aF138.92828369140625
aF137.1962890625
aF143.04306030273438
aF135.50709533691406
aF146.71197509765625
aF134.98013305664062
aF133.65667724609375
aF135.8834686279297
aF144.4839630126953
aF133.4119873046875
aF135.9774169921875
aF132.53561401367188
aF158.96749877929688
aF136.35629272460938
aF133.83567810058594
aF138.51321411132812
aF135.47674560546875
aF135.16151428222656
aF137.151123046875
aF142.97360229492188
aF133.67364501953125
aF135.25106811523438
aF132.9774932861328
aF134.16055297851562
aF132.61607360839844
aF135.3021240234375
aF137.04525756835938
aF134.24440002441406
aF134.38063049316406
aF136.93771362304688
aF131.1951446533203
aF143.6854705810547
aF132.80955505371094
aF138.13499450683594
aF134.0987548828125
aF136.30523681640625
aF136.3137969970703
as.