(dp0
S'training_loss'
p1
(lp2
F433.3180236816406
aF53292712.0
aF8782134.0
aF6074580.5
aF579115.6875
aF54798.73046875
aF101561.9921875
aF16769.544921875
aF782939072.0
aF470221312.0
aF80085784.0
aFnan
aFnan
aFnan
aFnan
aFnan
aFnan
aFnan
aFnan
aFnan
aFnan
aFnan
aFnan
aFnan
aFnan
aFnan
aFnan
aFnan
aFnan
aFnan
aFnan
asS'validation_loss'
p3
(lp4
F428.0821838378906
aF52815392.0
aF9078288.0
aF7040875.5
aF605356.9375
aF55678.0546875
aF101351.609375
aF16807.82421875
aF780666304.0
aF467275264.0
aF81583808.0
aFnan
aFnan
aFnan
aFnan
aFnan
aFnan
aFnan
aFnan
aFnan
aFnan
aFnan
aFnan
aFnan
aFnan
aFnan
aFnan
aFnan
aFnan
aFnan
aFnan
as.