(dp0
S'training_loss'
p1
(lp2
F497.856689453125
aF497.8564453125
aF497.8564147949219
aF497.8567810058594
aF497.8568420410156
aF497.8563537597656
aF497.8566589355469
aF497.8564453125
aF497.8566589355469
aF497.8564453125
aF497.85626220703125
aF497.85589599609375
aF497.85589599609375
aF497.8558349609375
aF497.8562927246094
aF497.8556213378906
aF497.8554992675781
aF497.8557434082031
aF497.85595703125
aF497.8560485839844
aF497.8560485839844
aF497.85589599609375
aF497.8554992675781
aF497.855712890625
aF497.8554382324219
aF497.8552551269531
aF497.76959228515625
aF497.25115966796875
aF496.5507507324219
aF495.1413269042969
aF224.0171661376953
aF262.0865173339844
aF211.1349334716797
aF222.05462646484375
aF243.064208984375
aF217.81871032714844
aF210.1897430419922
aF216.22775268554688
aF182.25711059570312
aF179.90017700195312
aF171.73696899414062
aF170.97943115234375
aF167.8528594970703
aF169.73927307128906
aF163.54214477539062
aF158.96078491210938
aF154.2581329345703
aF155.78012084960938
aF156.92527770996094
aF149.47421264648438
aF145.6110382080078
aF147.4154052734375
aF148.26109313964844
aF140.8844757080078
aF137.8817596435547
aF139.37579345703125
aF133.73846435546875
aF132.2753448486328
aF128.28485107421875
aF125.45055389404297
aF123.84021759033203
aF124.37168884277344
aF121.56534576416016
aF123.133056640625
aF120.2884292602539
aF115.71765899658203
aF111.20388793945312
aF112.39747619628906
aF108.52819061279297
aF108.05001068115234
aF106.64479064941406
aF105.84062194824219
aF102.40919494628906
aF103.01119995117188
aF101.26399993896484
aF96.12886810302734
aF95.17448425292969
aF93.90052032470703
aF95.22785186767578
aF95.26207733154297
aF89.61491394042969
aF94.21521759033203
aF87.98822021484375
aF85.9917221069336
aF84.77277374267578
aF82.83352661132812
aF88.87348175048828
aF83.31051635742188
aF82.40090942382812
aF79.11981201171875
aF80.77931213378906
asS'validation_loss'
p3
(lp4
F482.0863952636719
aF482.0864562988281
aF482.0863037109375
aF482.0863342285156
aF482.0862121582031
aF482.0862121582031
aF482.0862121582031
aF482.0860595703125
aF482.086181640625
aF482.0860290527344
aF482.08587646484375
aF482.08587646484375
aF482.0859375
aF482.0858154296875
aF482.0857238769531
aF482.0857238769531
aF482.0856018066406
aF482.08563232421875
aF482.0855407714844
aF482.08563232421875
aF482.0854187011719
aF482.08544921875
aF482.08526611328125
aF482.0853271484375
aF482.0852355957031
aF482.08526611328125
aF481.9989929199219
aF481.4764709472656
aF480.77093505859375
aF479.3518371582031
aF217.43026733398438
aF255.6883544921875
aF208.127685546875
aF220.74722290039062
aF238.2390899658203
aF215.26145935058594
aF206.5172882080078
aF216.64283752441406
aF178.0918426513672
aF177.90013122558594
aF170.44956970214844
aF167.1996612548828
aF164.90272521972656
aF167.8718719482422
aF160.2781982421875
aF155.41969299316406
aF152.54556274414062
aF154.88888549804688
aF156.3905487060547
aF147.6922607421875
aF145.96775817871094
aF147.2715301513672
aF150.6139373779297
aF145.7750244140625
aF146.07101440429688
aF150.343017578125
aF145.9917755126953
aF147.0267333984375
aF148.00991821289062
aF145.90879821777344
aF147.5420684814453
aF150.6106414794922
aF150.5642547607422
aF153.74855041503906
aF154.33665466308594
aF153.3096466064453
aF151.97540283203125
aF156.69113159179688
aF153.46363830566406
aF154.8121337890625
aF154.25820922851562
aF157.3324432373047
aF157.84677124023438
aF155.16661071777344
aF160.401123046875
aF157.2137908935547
aF155.43113708496094
aF156.9712371826172
aF159.77462768554688
aF157.52125549316406
aF157.26754760742188
aF160.50807189941406
aF157.16036987304688
aF156.8711395263672
aF157.17813110351562
aF158.3384552001953
aF157.3179931640625
aF157.42652893066406
aF157.317626953125
aF156.89772033691406
aF154.95164489746094
as.