(dp0
S'training_loss'
p1
(lp2
F60.533409118652344
aF56.64994430541992
aF50.51229476928711
aF87.79220581054688
aF66.54293823242188
aF47.642982482910156
aF57.56170654296875
aF49.31249237060547
aF51.024932861328125
aF44.46941375732422
aF48.41965103149414
aF48.526554107666016
aF62.556304931640625
aF41.02043533325195
aF45.53327178955078
aF37.727169036865234
aF63.705841064453125
aF46.39878463745117
aF46.72483444213867
aF32.09846115112305
aF44.659671783447266
aF41.03412628173828
aF49.792030334472656
aF33.343841552734375
aF32.35712432861328
aF30.48284149169922
aF41.65081024169922
aF27.514320373535156
aF39.961971282958984
aF25.87804412841797
aF27.459976196289062
aF28.162860870361328
aF26.664859771728516
aF29.701387405395508
aF30.997085571289062
aF24.139249801635742
aF34.970523834228516
aF34.895206451416016
aF29.160070419311523
aF24.90561866760254
aF25.922832489013672
aF24.27232551574707
aF72.52235412597656
aF34.364036560058594
aF23.23511505126953
aF23.853057861328125
aF29.878414154052734
aF20.95548439025879
aF62.52901077270508
aF19.62618637084961
aF19.528518676757812
aF25.512922286987305
aF25.787155151367188
aF21.044876098632812
aF20.829538345336914
aF18.75103759765625
aF19.35079574584961
aF25.676212310791016
aF18.022600173950195
aF18.007478713989258
asS'validation_loss'
p3
(lp4
F122.37743377685547
aF122.10977935791016
aF117.46546173095703
aF139.0072021484375
aF127.48775482177734
aF119.31184387207031
aF126.29454803466797
aF118.22068786621094
aF122.37725830078125
aF121.33407592773438
aF121.45330047607422
aF120.00432586669922
aF127.77162170410156
aF120.66973114013672
aF123.12844848632812
aF118.97733306884766
aF130.28109741210938
aF120.81011962890625
aF123.55735778808594
aF117.4249038696289
aF120.67532348632812
aF120.42655944824219
aF123.8868408203125
aF118.37345123291016
aF118.68819427490234
aF119.802734375
aF119.63622283935547
aF116.62982177734375
aF120.21727752685547
aF115.6517105102539
aF119.58554077148438
aF117.13776397705078
aF117.64051818847656
aF119.53211975097656
aF117.96308135986328
aF117.84333038330078
aF122.4297103881836
aF118.59979248046875
aF118.13945770263672
aF118.8377456665039
aF118.06471252441406
aF116.47354125976562
aF136.21575927734375
aF123.73821258544922
aF117.86569213867188
aF120.04364013671875
aF117.58263397216797
aF119.08265686035156
aF130.95339965820312
aF117.24222564697266
aF116.8887710571289
aF118.01554870605469
aF118.47454833984375
aF119.66340637207031
aF116.7220458984375
aF116.4563217163086
aF117.96746826171875
aF120.60031127929688
aF115.824462890625
aF117.34943389892578
as.